target datalayout = "e-m:e-p270:32:32-p271:32:32-p272:64:64-i64:64-i128:128-f80:128-n8:16:32:64-S128"
target triple = "x86_64-pc-linux-gnu"

%struct.redisServer = type { i32, i64, ptr, ptr, ptr, i32, i32, i32, i32, i32, ptr, ptr, ptr, ptr, ptr, i32, i32, i32, i32, i64, i32, i32, i32, i32, ptr, i32, i32, [41 x i8], i32, i64, i32, i32, i32, ptr, ptr, i32, i32, i64, ptr, ptr, ptr, ptr, [2 x i32], i32, i32, i32, i32, i32, i32, [16 x ptr], i32, ptr, ptr, i32, [8 x %struct.connListener], i32, %struct.connListener, ptr, ptr, ptr, ptr, ptr, ptr, ptr, ptr, ptr, ptr, i32, ptr, i32, ptr, [3 x %struct.pause_event], [256 x i8], ptr, i64, i32, i32, [128 x i32], i32, i32, i64, i32, i32, i32, i32, i32, i64, i64, i64, i64, i64, i64, i64, i64, i64, i64, double, i64, i64, i64, i64, i64, i64, i64, i64, i64, i64, i64, i64, i64, i64, i64, i64, i64, i64, i64, i64, i64, double, i64, i64, i64, i64, i64, ptr, i64, i64, i64, %struct.malloc_stats, i64, i64, i64, i64, i64, i64, i64, i64, i64, i64, i64, i64, double, [4 x i64], i64, i64, i64, i64, [128 x i64], [128 x i64], i64, i64, [7 x %struct.anon], i64, i64, i64, i64, i64, i64, [4 x %struct.durationStats], i32, i32, i32, i32, i32, i32, i32, i32, i32, i32, i32, i32, i64, i32, i32, i32, i32, i64, i64, i32, i32, i32, i32, i32, ptr, [3 x %struct.clientBufferLimitsConfig], i32, i32, i32, ptr, i32, i32, i32, i32, i32, i32, ptr, ptr, i32, i32, i64, i64, i64, i64, i64, i32, i32, ptr, i32, i32, i64, i64, i64, i64, i64, i32, i32, i64, i32, i32, i32, i32, i32, i32, i32, i32, ptr, i32, i64, i64, i64, i64, i32, ptr, i32, ptr, i32, i32, i32, i64, i64, i64, i64, i32, i32, i32, i32, i32, i32, ptr, i32, i32, ptr, i32, i32, i32, [2 x i32], i32, %struct.redisOpArray, i32, ptr, i32, ptr, i32, i32, i32, i32, i32, i32, i32, [41 x i8], [41 x i8], i64, i64, i64, i64, i32, i32, ptr, i64, i64, %struct.replDataBuf, i64, i64, i32, i32, i32, i32, i32, i32, i32, i32, i32, i64, ptr, i64, ptr, ptr, ptr, i32, i32, ptr, ptr, i32, i32, i32, i64, i64, i64, i64, ptr, ptr, i32, ptr, i64, i32, i32, i32, i64, i32, i32, i32, i32, ptr, i32, i32, [41 x i8], i64, i32, ptr, i32, i32, i64, i64, i32, i32, i32, i32, i32, i64, [3 x i32], i32, i32, i32, [10 x i32], ptr, ptr, i32, i64, ptr, ptr, i32, i32, i32, i32, i64, i64, i64, i64, i64, i64, i64, i64, i64, i64, i32, i32, i64, i64, i32, i64, i64, i64, i64, i64, ptr, ptr, i32, ptr, i32, i32, i32, i32, i64, i64, ptr, ptr, i32, i32, i32, i32, i32, ptr, ptr, ptr, i32, i32, i32, i32, i32, i32, i32, i64, i32, i32, i64, i32, i32, i32, i32, i32, i32, i32, i64, ptr, ptr, i64, ptr, i32, %struct.aclInfo, i32, i64, i32, i32, i32, %struct.redisTLSContextConfig, ptr, ptr, ptr, ptr, ptr, i64, i32, ptr, i32, i32, i32, i64, i32, ptr }
%struct.connListener = type { [16 x i32], i32, ptr, i32, i32, ptr, ptr }
%struct.pause_event = type { i32, i64 }
%struct.malloc_stats = type { i64, i64, i64, i64, i64, i64, i64, i64, i64, i64, i64 }
%struct.anon = type { i64, i64, [16 x i64], i32 }
%struct.durationStats = type { i64, i64, i64 }
%struct.clientBufferLimitsConfig = type { i64, i64, i64 }
%struct.redisOpArray = type { ptr, i32, i32 }
%struct.replDataBuf = type { ptr, i64, i64, i64, i64 }
%struct.aclInfo = type { i64, i64, i64, i64 }
%struct.redisTLSContextConfig = type { ptr, ptr, ptr, ptr, ptr, ptr, ptr, ptr, ptr, ptr, ptr, ptr, i32, i32, i32, i32 }
%struct.sharedObjectsStruct = type { ptr, ptr, ptr, ptr, ptr, ptr, ptr, ptr, [4 x ptr], [4 x ptr], [4 x ptr], [4 x ptr], ptr, ptr, ptr, ptr, ptr, ptr, ptr, ptr, ptr, ptr, ptr, ptr, ptr, ptr, ptr, ptr, ptr, ptr, ptr, ptr, ptr, ptr, ptr, ptr, ptr, ptr, ptr, ptr, ptr, ptr, ptr, ptr, ptr, ptr, ptr, ptr, ptr, ptr, ptr, ptr, ptr, ptr, ptr, ptr, ptr, ptr, ptr, ptr, ptr, ptr, ptr, ptr, ptr, ptr, ptr, ptr, ptr, ptr, ptr, ptr, ptr, ptr, ptr, ptr, ptr, ptr, ptr, ptr, ptr, ptr, ptr, ptr, ptr, ptr, ptr, ptr, [10 x ptr], [10000 x ptr], [32 x ptr], [32 x ptr], [32 x ptr], [32 x ptr], ptr, ptr }

@server = external global %struct.redisServer, align 8
@.str.144 = private unnamed_addr constant [76 x i8] c"WARNING: Sentinel was not able to save the new configuration on disk!!!: %s\00", align 1
@.str.145 = private unnamed_addr constant [41 x i8] c"Sentinel new configuration saved on disk\00", align 1
@shared = external global %struct.sharedObjectsStruct, align 8
@.str.448 = private unnamed_addr constant [47 x i8] c"Failed to save config file. Check server logs.\00", align 1

; Function Attrs: nounwind uwtable
define dso_local i32 @sentinelFlushConfig() #0 {
  %1 = alloca i32, align 4
  %2 = alloca i32, align 4
  %3 = alloca i32, align 4
  %4 = alloca i32, align 4
  call void @llvm.lifetime.start.p0(i64 4, ptr %2) #16
  %5 = load i32, ptr getelementptr inbounds nuw (%struct.redisServer, ptr @server, i32 0, i32 8), align 4, !tbaa !86
  store i32 %5, ptr %2, align 4, !tbaa !82
  call void @llvm.lifetime.start.p0(i64 4, ptr %3) #16
  store i32 10, ptr getelementptr inbounds nuw (%struct.redisServer, ptr @server, i32 0, i32 8), align 4, !tbaa !86
  %6 = load ptr, ptr getelementptr inbounds nuw (%struct.redisServer, ptr @server, i32 0, i32 2), align 8, !tbaa !80
  %7 = call i32 @rewriteConfig(ptr noundef %6, i32 noundef 0)
  store i32 %7, ptr %3, align 4, !tbaa !82
  %8 = load i32, ptr %2, align 4, !tbaa !82
  store i32 %8, ptr getelementptr inbounds nuw (%struct.redisServer, ptr @server, i32 0, i32 8), align 4, !tbaa !86
  %9 = load i32, ptr %3, align 4, !tbaa !82
  %10 = icmp eq i32 %9, -1
  br i1 %10, label %11, label %22

11:                                               ; preds = %0
  br label %12

12:                                               ; preds = %11
  %13 = load i32, ptr getelementptr inbounds nuw (%struct.redisServer, ptr @server, i32 0, i32 159), align 8, !tbaa !81
  %14 = icmp slt i32 3, %13
  br i1 %14, label %15, label %16

15:                                               ; preds = %12
  br label %21

16:                                               ; preds = %12
  %17 = call ptr @__errno_location() #17
  %18 = load i32, ptr %17, align 4, !tbaa !82
  %19 = call ptr @strerror(i32 noundef %18) #16
  call void (i32, ptr, ...) @_serverLog(i32 noundef 3, ptr noundef @.str.144, ptr noundef %19)
  br label %20

20:                                               ; preds = %16
  br label %21

21:                                               ; preds = %20, %15
  store i32 -1, ptr %1, align 4
  store i32 1, ptr %4, align 4
  br label %30

22:                                               ; preds = %0
  br label %23

23:                                               ; preds = %22
  %24 = load i32, ptr getelementptr inbounds nuw (%struct.redisServer, ptr @server, i32 0, i32 159), align 8, !tbaa !81
  %25 = icmp slt i32 2, %24
  br i1 %25, label %26, label %27

26:                                               ; preds = %23
  br label %29

27:                                               ; preds = %23
  call void (i32, ptr, ...) @_serverLog(i32 noundef 2, ptr noundef @.str.145)
  br label %28

28:                                               ; preds = %27
  br label %29

29:                                               ; preds = %28, %26
  store i32 0, ptr %1, align 4
  store i32 1, ptr %4, align 4
  br label %30

30:                                               ; preds = %29, %21
  call void @llvm.lifetime.end.p0(i64 4, ptr %3) #16
  call void @llvm.lifetime.end.p0(i64 4, ptr %2) #16
  %31 = load i32, ptr %1, align 4
  ret i32 %31
}

; Function Attrs: nounwind uwtable
define internal void @sentinelFlushConfigAndReply(ptr noundef %0) #0 {
  %2 = alloca ptr, align 8
  store ptr %0, ptr %2, align 8, !tbaa !125
  %3 = call i32 @sentinelFlushConfig()
  %4 = icmp eq i32 %3, -1
  br i1 %4, label %5, label %7

5:                                                ; preds = %1
  %6 = load ptr, ptr %2, align 8, !tbaa !125
  call void @addReplyError(ptr noundef %6, ptr noundef @.str.448)
  br label %10

7:                                                ; preds = %1
  %8 = load ptr, ptr %2, align 8, !tbaa !125
  %9 = load ptr, ptr @shared, align 8, !tbaa !292
  call void @addReply(ptr noundef %8, ptr noundef %9)
  br label %10

10:                                               ; preds = %7, %5
  ret void
}