; Function Attrs: nounwind uwtable
define internal fastcc void @sentinelFlushConfigAndReply(ptr noundef %0) unnamed_addr #0 {
  %2 = load i32, ptr getelementptr inbounds nuw (i8, ptr @server, i64 52), align 4, !tbaa !82
  store i32 10, ptr getelementptr inbounds nuw (i8, ptr @server, i64 52), align 4, !tbaa !82
  %3 = load ptr, ptr getelementptr inbounds nuw (i8, ptr @server, i64 16), align 8, !tbaa !76
  %4 = tail call i32 @rewriteConfig(ptr noundef %3, i32 noundef 0) #30
  store i32 %2, ptr getelementptr inbounds nuw (i8, ptr @server, i64 52), align 4, !tbaa !82
  %5 = icmp eq i32 %4, -1
  %6 = load i32, ptr getelementptr inbounds nuw (i8, ptr @server, i64 6288), align 8, !tbaa !77
  br i1 %5, label %7, label %13

7:                                                ; preds = %1
  %8 = icmp sgt i32 %6, 3
  br i1 %8, label %16, label %9

9:                                                ; preds = %7
  %10 = tail call ptr @__errno_location() #32
  %11 = load i32, ptr %10, align 4, !tbaa !78
  %12 = tail call ptr @strerror(i32 noundef %11) #30
  tail call void (i32, ptr, ...) @_serverLog(i32 noundef 3, ptr noundef nonnull @.str.144, ptr noundef %12) #30
  br label %16

13:                                               ; preds = %1
  %14 = icmp sgt i32 %6, 2
  br i1 %14, label %sentinelFlushConfig.exit, label %15

15:                                               ; preds = %13
  tail call void (i32, ptr, ...) @_serverLog(i32 noundef 2, ptr noundef nonnull @.str.145) #30
  br label %sentinelFlushConfig.exit

16:                                               ; preds = %7, %9
  tail call void @addReplyError(ptr noundef %0, ptr noundef nonnull @.str.448) #30
  br label %18

sentinelFlushConfig.exit:                         ; preds = %15, %13
  %17 = load ptr, ptr @shared, align 8, !tbaa !264
  tail call void @addReply(ptr noundef %0, ptr noundef %17) #30
  br label %18

18:                                               ; preds = %sentinelFlushConfig.exit, %16
  ret void
}